target datalayout = "e-m:e-p270:32:32-p271:32:32-p272:64:64-i64:64-i128:128-f80:128-n8:16:32:64-S128"
target triple = "x86_64-unknown-linux-gnu"

%struct.SCSISense = type { i8, i8, i8 }
%struct.DeviceClass = type { %struct.ObjectClass, [1 x i64], ptr, ptr, ptr, i8, i8, ptr, ptr, ptr, ptr, ptr }
%struct.ObjectClass = type { ptr, ptr, [4 x ptr], [4 x ptr], ptr, ptr }
%struct.SCSIDiskClass = type { %struct.SCSIDeviceClass, ptr, ptr, ptr, ptr }
%struct.SCSIDeviceClass = type { %struct.DeviceClass, ptr, ptr, ptr, ptr, ptr }
%struct.SCSIDiskState = type { %struct.SCSIDevice, i32, i8, i8, i8, i16, i64, i64, i32, ptr, ptr, ptr, ptr, ptr, ptr, i8, i8, i16 }
%struct.SCSIDevice = type { %struct.DeviceState, ptr, ptr, i32, %struct.BlockConf, %struct.SCSISense, i8, [252 x i8], i32, %union.anon, i32, i32, i32, i32, i64, i64, i64, i32, i32, i32, i8, i8 }
%struct.DeviceState = type { %struct.Object, ptr, ptr, i8, i8, i64, ptr, i32, i8, ptr, %struct.NamedGPIOListHead, %struct.NamedClockListHead, %struct.BusStateHead, i32, i32, i32, %struct.ResettableState, ptr, %struct.MemReentrancyGuard }
%struct.Object = type { ptr, ptr, ptr, i32, ptr }
%struct.NamedGPIOListHead = type { ptr }
%struct.NamedClockListHead = type { ptr }
%struct.BusStateHead = type { ptr }
%struct.ResettableState = type { i32, i8, i8 }
%struct.MemReentrancyGuard = type { i8 }
%struct.BlockConf = type { ptr, i32, i32, i32, i32, i32, i32, i32, i32, i32, i32, i32, i32, i32, i32, i8, i32, i32, i32, i32 }
%union.anon = type { %struct.QTailQLink }
%struct.QTailQLink = type { ptr, ptr }
%struct.SCSIDiskReq = type { %struct.SCSIRequest, i64, i32, i32, i8, i8, %struct.iovec, %struct.QEMUIOVector, %struct.BlockAcctCookie }
%struct.SCSIRequest = type { ptr, ptr, ptr, i32, i32, i32, i16, i16, ptr, i64, %struct.SCSICommand, %struct.NotifierList, [252 x i8], i32, i8, i8, i8, i8, ptr, ptr, %union.anon.0 }
%struct.SCSICommand = type { [16 x i8], i32, i64, i64, i32 }
%struct.NotifierList = type { %struct.anon }
%struct.anon = type { ptr }
%union.anon.0 = type { %struct.QTailQLink }
%struct.iovec = type { ptr, i64 }
%struct.QEMUIOVector = type { ptr, i32, %union.anon.1 }
%union.anon.1 = type { %struct.anon.2 }
%struct.anon.2 = type { i32, %struct.iovec }
%struct.BlockAcctCookie = type { i64, i64, i32 }

@.str.5 = private unnamed_addr constant [28 x i8] c"../qemu/hw/scsi/scsi-disk.c\00", align 1
@sense_code_NO_SENSE = external constant %struct.SCSISense, align 1
@__func__.scsi_handle_rw_error = private unnamed_addr constant [21 x i8] c"scsi_handle_rw_error\00", align 1

; Function Attrs: nounwind sspstrong uwtable
define internal zeroext i1 @scsi_handle_rw_error(ptr noundef %r, i32 noundef %ret, i1 noundef zeroext %acct_failed) #0 {
entry:
  %retval = alloca i1, align 1
  %r.addr = alloca ptr, align 8
  %ret.addr = alloca i32, align 4
  %acct_failed.addr = alloca i8, align 1
  %is_read = alloca i8, align 1
  %s = alloca ptr, align 8
  %tmp = alloca ptr, align 8
  %__mptr = alloca ptr, align 8
  %tmp3 = alloca ptr, align 8
  %sdc = alloca ptr, align 8
  %sense = alloca %struct.SCSISense, align 1
  %error = alloca i32, align 4
  %req_has_sense = alloca i8, align 1
  %action = alloca i32, align 4
  %status = alloca i32, align 4
  %sense.coerce = alloca i24, align 4
  store ptr %r, ptr %r.addr, align 8
  store i32 %ret, ptr %ret.addr, align 4
  %frombool = zext i1 %acct_failed to i8
  store i8 %frombool, ptr %acct_failed.addr, align 1
  %0 = load ptr, ptr %r.addr, align 8
  %req = getelementptr inbounds %struct.SCSIDiskReq, ptr %0, i32 0, i32 0
  %cmd = getelementptr inbounds %struct.SCSIRequest, ptr %req, i32 0, i32 10
  %mode = getelementptr inbounds %struct.SCSICommand, ptr %cmd, i32 0, i32 4
  %1 = load i32, ptr %mode, align 8
  %cmp = icmp eq i32 %1, 1
  %frombool1 = zext i1 %cmp to i8
  store i8 %frombool1, ptr %is_read, align 1
  %2 = load ptr, ptr %r.addr, align 8
  %req2 = getelementptr inbounds %struct.SCSIDiskReq, ptr %2, i32 0, i32 0
  %dev = getelementptr inbounds %struct.SCSIRequest, ptr %req2, i32 0, i32 1
  %3 = load ptr, ptr %dev, align 8
  store ptr %3, ptr %__mptr, align 8
  %4 = load ptr, ptr %__mptr, align 8
  %add.ptr = getelementptr i8, ptr %4, i64 0
  store ptr %add.ptr, ptr %tmp3, align 8
  %5 = load ptr, ptr %tmp3, align 8
  store ptr %5, ptr %tmp, align 8
  %6 = load ptr, ptr %tmp, align 8
  store ptr %6, ptr %s, align 8
  %7 = load ptr, ptr %s, align 8
  %call = call ptr @object_get_class(ptr noundef %7)
  store ptr %call, ptr %sdc, align 8
  call void @llvm.memcpy.p0.p0.i64(ptr align 1 %sense, ptr align 1 @sense_code_NO_SENSE, i64 3, i1 false)
  store i32 0, ptr %error, align 4
  store i8 0, ptr %req_has_sense, align 1
  %8 = load i32, ptr %ret.addr, align 4
  %cmp4 = icmp slt i32 %8, 0
  br i1 %cmp4, label %if.then, label %if.else

if.then:                                          ; preds = %entry
  %9 = load i32, ptr %ret.addr, align 4
  %sub = sub i32 0, %9
  %call5 = call i32 @scsi_sense_from_errno(i32 noundef %sub, ptr noundef %sense)
  store i32 %call5, ptr %status, align 4
  %10 = load i32, ptr %ret.addr, align 4
  %sub6 = sub i32 0, %10
  store i32 %sub6, ptr %error, align 4
  br label %if.end13

if.else:                                          ; preds = %entry
  %11 = load i32, ptr %ret.addr, align 4
  store i32 %11, ptr %status, align 4
  %12 = load i32, ptr %status, align 4
  %cmp7 = icmp eq i32 %12, 2
  br i1 %cmp7, label %if.then8, label %if.else12

if.then8:                                         ; preds = %if.else
  store i8 1, ptr %req_has_sense, align 1
  %13 = load ptr, ptr %r.addr, align 8
  %req9 = getelementptr inbounds %struct.SCSIDiskReq, ptr %13, i32 0, i32 0
  %sense10 = getelementptr inbounds %struct.SCSIRequest, ptr %req9, i32 0, i32 12
  %arraydecay = getelementptr inbounds [252 x i8], ptr %sense10, i64 0, i64 0
  %call11 = call i32 @scsi_sense_buf_to_errno(ptr noundef %arraydecay, i64 noundef 252)
  store i32 %call11, ptr %error, align 4
  br label %if.end

if.else12:                                        ; preds = %if.else
  store i32 22, ptr %error, align 4
  br label %if.end

if.end:                                           ; preds = %if.else12, %if.then8
  br label %if.end13

if.end13:                                         ; preds = %if.end, %if.then
  %14 = load i8, ptr %req_has_sense, align 1
  %tobool = trunc i8 %14 to i1
  br i1 %tobool, label %land.lhs.true, label %if.else19

land.lhs.true:                                    ; preds = %if.end13
  %15 = load ptr, ptr %r.addr, align 8
  %req14 = getelementptr inbounds %struct.SCSIDiskReq, ptr %15, i32 0, i32 0
  %sense15 = getelementptr inbounds %struct.SCSIRequest, ptr %req14, i32 0, i32 12
  %arraydecay16 = getelementptr inbounds [252 x i8], ptr %sense15, i64 0, i64 0
  %call17 = call zeroext i1 @scsi_sense_buf_is_guest_recoverable(ptr noundef %arraydecay16, i64 noundef 252)
  br i1 %call17, label %if.then18, label %if.else19

if.then18:                                        ; preds = %land.lhs.true
  store i32 1, ptr %action, align 4
  store i8 0, ptr %acct_failed.addr, align 1
  br label %if.end26

if.else19:                                        ; preds = %land.lhs.true, %if.end13
  %16 = load ptr, ptr %s, align 8
  %qdev = getelementptr inbounds %struct.SCSIDiskState, ptr %16, i32 0, i32 0
  %conf = getelementptr inbounds %struct.SCSIDevice, ptr %qdev, i32 0, i32 4
  %blk = getelementptr inbounds %struct.BlockConf, ptr %conf, i32 0, i32 0
  %17 = load ptr, ptr %blk, align 8
  %18 = load i8, ptr %is_read, align 1
  %tobool20 = trunc i8 %18 to i1
  %19 = load i32, ptr %error, align 4
  %call21 = call i32 @blk_get_error_action(ptr noundef %17, i1 noundef zeroext %tobool20, i32 noundef %19)
  store i32 %call21, ptr %action, align 4
  %20 = load ptr, ptr %s, align 8
  %qdev22 = getelementptr inbounds %struct.SCSIDiskState, ptr %20, i32 0, i32 0
  %conf23 = getelementptr inbounds %struct.SCSIDevice, ptr %qdev22, i32 0, i32 4
  %blk24 = getelementptr inbounds %struct.BlockConf, ptr %conf23, i32 0, i32 0
  %21 = load ptr, ptr %blk24, align 8
  %22 = load i32, ptr %action, align 4
  %23 = load i8, ptr %is_read, align 1
  %tobool25 = trunc i8 %23 to i1
  %24 = load i32, ptr %error, align 4
  call void @blk_error_action(ptr noundef %21, i32 noundef %22, i1 noundef zeroext %tobool25, i32 noundef %24)
  br label %if.end26

if.end26:                                         ; preds = %if.else19, %if.then18
  %25 = load i32, ptr %action, align 4
  switch i32 %25, label %sw.default [
    i32 1, label %sw.bb
    i32 0, label %sw.bb44
    i32 2, label %sw.bb45
  ]

sw.bb:                                            ; preds = %if.end26
  %26 = load i8, ptr %acct_failed.addr, align 1
  %tobool27 = trunc i8 %26 to i1
  br i1 %tobool27, label %if.then28, label %if.end33

if.then28:                                        ; preds = %sw.bb
  %27 = load ptr, ptr %s, align 8
  %qdev29 = getelementptr inbounds %struct.SCSIDiskState, ptr %27, i32 0, i32 0
  %conf30 = getelementptr inbounds %struct.SCSIDevice, ptr %qdev29, i32 0, i32 4
  %blk31 = getelementptr inbounds %struct.BlockConf, ptr %conf30, i32 0, i32 0
  %28 = load ptr, ptr %blk31, align 8
  %call32 = call ptr @blk_get_stats(ptr noundef %28)
  %29 = load ptr, ptr %r.addr, align 8
  %acct = getelementptr inbounds %struct.SCSIDiskReq, ptr %29, i32 0, i32 8
  call void @block_acct_failed(ptr noundef %call32, ptr noundef %acct)
  br label %if.end33

if.end33:                                         ; preds = %if.then28, %sw.bb
  %30 = load i8, ptr %req_has_sense, align 1
  %tobool34 = trunc i8 %30 to i1
  br i1 %tobool34, label %if.then35, label %if.else37

if.then35:                                        ; preds = %if.end33
  %31 = load ptr, ptr %sdc, align 8
  %update_sense = getelementptr inbounds %struct.SCSIDiskClass, ptr %31, i32 0, i32 4
  %32 = load ptr, ptr %update_sense, align 8
  %33 = load ptr, ptr %r.addr, align 8
  %req36 = getelementptr inbounds %struct.SCSIDiskReq, ptr %33, i32 0, i32 0
  call void %32(ptr noundef %req36)
  br label %if.end42

if.else37:                                        ; preds = %if.end33
  %34 = load i32, ptr %status, align 4
  %cmp38 = icmp eq i32 %34, 2
  br i1 %cmp38, label %if.then39, label %if.end41

if.then39:                                        ; preds = %if.else37
  %35 = load ptr, ptr %r.addr, align 8
  %req40 = getelementptr inbounds %struct.SCSIDiskReq, ptr %35, i32 0, i32 0
  call void @llvm.memcpy.p0.p0.i64(ptr align 4 %sense.coerce, ptr align 1 %sense, i64 3, i1 false)
  %36 = load i24, ptr %sense.coerce, align 4
  call void @scsi_req_build_sense(ptr noundef %req40, i24 %36)
  br label %if.end41

if.end41:                                         ; preds = %if.then39, %if.else37
  br label %if.end42

if.end42:                                         ; preds = %if.end41, %if.then35
  %37 = load ptr, ptr %r.addr, align 8
  %req43 = getelementptr inbounds %struct.SCSIDiskReq, ptr %37, i32 0, i32 0
  %38 = load i32, ptr %status, align 4
  call void @scsi_req_complete(ptr noundef %req43, i32 noundef %38)
  store i1 true, ptr %retval, align 1
  br label %sw.epilog

sw.bb44:                                          ; preds = %if.end26
  store i1 false, ptr %retval, align 1
  br label %sw.epilog

sw.bb45:                                          ; preds = %if.end26
  %39 = load ptr, ptr %r.addr, align 8
  %req46 = getelementptr inbounds %struct.SCSIDiskReq, ptr %39, i32 0, i32 0
  call void @scsi_req_retry(ptr noundef %req46)
  store i1 true, ptr %retval, align 1
  br label %sw.epilog

sw.default:                                       ; preds = %if.end26
  br label %do.body

do.body:                                          ; preds = %sw.default
  call void @g_assertion_message_expr(ptr noundef null, ptr noundef @.str.5, i32 noundef 253, ptr noundef @__func__.scsi_handle_rw_error, ptr noundef null) #14
  unreachable

do.end:                                           ; No predecessors!
  br label %sw.epilog

sw.epilog:                                        ; preds = %do.end, %sw.bb45, %sw.bb44, %if.end42
  %40 = load i1, ptr %retval, align 1
  ret i1 %40
}