; Function Attrs: nounwind sspstrong uwtable
define internal fastcc noundef zeroext i1 @scsi_handle_rw_error(ptr noundef %r, i32 noundef range(i32 -2147483648, 256) %ret, i1 noundef zeroext %acct_failed) unnamed_addr #0 {
entry:
  %sense = alloca %struct.SCSISense, align 4
  %mode = getelementptr inbounds nuw i8, ptr %r, i64 96
  %0 = load i32, ptr %mode, align 8
  %cmp = icmp eq i32 %0, 1
  %dev = getelementptr inbounds nuw i8, ptr %r, i64 8
  %1 = load ptr, ptr %dev, align 8
  %call = tail call ptr @object_get_class(ptr noundef %1) #18
  call void @llvm.memcpy.p0.p0.i64(ptr noundef nonnull align 4 dereferenceable(3) %sense, ptr noundef nonnull align 1 dereferenceable(3) @sense_code_NO_SENSE, i64 3, i1 false)
  %cmp4 = icmp slt i32 %ret, 0
  br i1 %cmp4, label %if.then, label %if.else

if.then:                                          ; preds = %entry
  %sub = sub i32 0, %ret
  %call5 = call i32 @scsi_sense_from_errno(i32 noundef %sub, ptr noundef nonnull %sense) #18
  br label %if.end26

if.else:                                          ; preds = %entry
  %cmp7 = icmp eq i32 %ret, 2
  br i1 %cmp7, label %land.lhs.true, label %if.end26

land.lhs.true:                                    ; preds = %if.else
  %sense10 = getelementptr inbounds nuw i8, ptr %r, i64 112
  %call11 = tail call i32 @scsi_sense_buf_to_errno(ptr noundef nonnull %sense10, i64 noundef 252) #18
  %call17 = tail call zeroext i1 @scsi_sense_buf_is_guest_recoverable(ptr noundef nonnull %sense10, i64 noundef 252) #18
  br i1 %call17, label %if.then35, label %if.end26

if.end26:                                         ; preds = %if.else, %if.then, %land.lhs.true
  %status.028 = phi i32 [ 2, %land.lhs.true ], [ %ret, %if.else ], [ %call5, %if.then ]
  %req_has_sense.026 = phi i1 [ true, %land.lhs.true ], [ false, %if.else ], [ false, %if.then ]
  %error.024 = phi i32 [ %call11, %land.lhs.true ], [ 22, %if.else ], [ %sub, %if.then ]
  %conf = getelementptr inbounds nuw i8, ptr %1, i64 184
  %2 = load ptr, ptr %conf, align 8
  %call21 = call i32 @blk_get_error_action(ptr noundef %2, i1 noundef zeroext %cmp, i32 noundef %error.024) #18
  %3 = load ptr, ptr %conf, align 8
  call void @blk_error_action(ptr noundef %3, i32 noundef %call21, i1 noundef zeroext %cmp, i32 noundef %error.024) #18
  switch i32 %call21, label %do.body [
    i32 1, label %sw.bb
    i32 0, label %sw.epilog
    i32 2, label %sw.bb45
  ]

sw.bb:                                            ; preds = %if.end26
  br i1 %acct_failed, label %if.then28, label %if.end33

if.then28:                                        ; preds = %sw.bb
  %4 = load ptr, ptr %conf, align 8
  %call32 = call ptr @blk_get_stats(ptr noundef %4) #18
  %acct = getelementptr inbounds nuw i8, ptr %r, i64 488
  call void @block_acct_failed(ptr noundef %call32, ptr noundef nonnull %acct) #18
  br i1 %req_has_sense.026, label %if.then35, label %if.else37

if.end33:                                         ; preds = %sw.bb
  br i1 %req_has_sense.026, label %if.then35, label %if.else37

if.then35:                                        ; preds = %land.lhs.true, %if.then28, %if.end33
  %status.027334044 = phi i32 [ %status.028, %if.end33 ], [ %status.028, %if.then28 ], [ 2, %land.lhs.true ]
  %update_sense = getelementptr inbounds nuw i8, ptr %call, i64 240
  %5 = load ptr, ptr %update_sense, align 8
  call void %5(ptr noundef nonnull %r) #18
  br label %if.end42

if.else37:                                        ; preds = %if.then28, %if.end33
  %cmp38 = icmp eq i32 %status.028, 2
  br i1 %cmp38, label %if.then39, label %if.end42

if.then39:                                        ; preds = %if.else37
  %sense.coerce.0.copyload = load i24, ptr %sense, align 4
  call void @scsi_req_build_sense(ptr noundef nonnull %r, i24 %sense.coerce.0.copyload) #18
  br label %if.end42

if.end42:                                         ; preds = %if.else37, %if.then39, %if.then35
  %status.027334043 = phi i32 [ %status.028, %if.else37 ], [ 2, %if.then39 ], [ %status.027334044, %if.then35 ]
  call void @scsi_req_complete(ptr noundef nonnull %r, i32 noundef %status.027334043) #18
  br label %sw.epilog

sw.bb45:                                          ; preds = %if.end26
  call void @scsi_req_retry(ptr noundef nonnull %r) #18
  br label %sw.epilog

do.body:                                          ; preds = %if.end26
  call void @g_assertion_message_expr(ptr noundef null, ptr noundef nonnull @.str.5, i32 noundef 253, ptr noundef nonnull @__func__.scsi_handle_rw_error, ptr noundef null) #19
  unreachable

sw.epilog:                                        ; preds = %if.end26, %sw.bb45, %if.end42
  %retval.0 = phi i1 [ true, %sw.bb45 ], [ true, %if.end42 ], [ false, %if.end26 ]
  ret i1 %retval.0
}